; Function Attrs: nounwind uwtable
define ptr @zend_get_attribute(ptr noundef readonly %0, ptr noundef %1) local_unnamed_addr #0 {
  %.not.i = icmp eq ptr %0, null
  br i1 %.not.i, label %get_attribute.exit, label %3

3:                                                ; preds = %2
  %4 = getelementptr inbounds i8, ptr %0, i64 16
  %5 = load ptr, ptr %4, align 8
  %6 = getelementptr inbounds i8, ptr %0, i64 24
  %7 = load i32, ptr %6, align 8
  %8 = zext i32 %7 to i64
  %9 = getelementptr inbounds %struct._zval_struct, ptr %5, i64 %8
  %10 = getelementptr inbounds i8, ptr %0, i64 8
  %11 = load i32, ptr %10, align 8
  %12 = and i32 %11, 4
  %13 = icmp ne i32 %12, 0
  tail call void @llvm.assume(i1 %13)
  %.not3334.i = icmp eq i32 %7, 0
  br i1 %.not3334.i, label %get_attribute.exit, label %.lr.ph.i

.lr.ph.i:                                         ; preds = %3
  %14 = getelementptr inbounds i8, ptr %1, i64 16
  br label %15

15:                                               ; preds = %.critedge2.i, %.lr.ph.i
  %.02835.i = phi ptr [ %5, %.lr.ph.i ], [ %35, %.critedge2.i ]
  %16 = getelementptr inbounds i8, ptr %.02835.i, i64 8
  %17 = load i8, ptr %16, align 8
  %18 = icmp eq i8 %17, 0
  br i1 %18, label %.critedge2.i, label %19

19:                                               ; preds = %15
  %20 = load ptr, ptr %.02835.i, align 8
  %21 = getelementptr inbounds i8, ptr %20, i64 24
  %22 = load i32, ptr %21, align 8
  %23 = icmp eq i32 %22, 0
  br i1 %23, label %24, label %.critedge2.i

24:                                               ; preds = %19
  %25 = getelementptr inbounds i8, ptr %20, i64 8
  %26 = load ptr, ptr %25, align 8
  %27 = icmp eq ptr %26, %1
  br i1 %27, label %get_attribute.exit, label %28

28:                                               ; preds = %24
  %29 = getelementptr inbounds i8, ptr %26, i64 16
  %30 = load i64, ptr %29, align 8
  %31 = load i64, ptr %14, align 8
  %32 = icmp eq i64 %30, %31
  br i1 %32, label %33, label %.critedge2.i

33:                                               ; preds = %28
  %34 = tail call zeroext i1 @zend_string_equal_val(ptr noundef nonnull %26, ptr noundef nonnull %1) #16
  br i1 %34, label %get_attribute.exit, label %.critedge2.i

.critedge2.i:                                     ; preds = %33, %28, %19, %15
  %35 = getelementptr inbounds i8, ptr %.02835.i, i64 16
  %.not33.i = icmp eq ptr %35, %9
  br i1 %.not33.i, label %get_attribute.exit, label %15

get_attribute.exit:                               ; preds = %24, %33, %.critedge2.i, %2, %3
  %.0.i = phi ptr [ null, %2 ], [ null, %3 ], [ null, %.critedge2.i ], [ %20, %33 ], [ %20, %24 ]
  ret ptr %.0.i
}